target datalayout = "e-m:e-p270:32:32-p271:32:32-p272:64:64-i64:64-i128:128-f80:128-n8:16:32:64-S128"
target triple = "x86_64-pc-linux-gnu"

%struct.part_row_data_t = type { ptr, i32, i32, ptr, i32 }
%struct.part_res_record = type { ptr, i16, ptr, i8, ptr }
%struct.part_record = type { i32, ptr, ptr, ptr, ptr, ptr, ptr, i32, ptr, ptr, ptr, ptr, ptr, i32, i64, i32, ptr, ptr, ptr, ptr, ptr, i32, i32, ptr, i32, i32, i64, i32, i32, i16, i32, i32, i32, i32, ptr, ptr, ptr, ptr, ptr, double, i16, i16, i16, i16, ptr, ptr, i16, i16, i32, i16, i32, i32, i32, i32, i16, ptr, ptr, ptr }

@select_part_record = dso_local global ptr null, align 8
@.str = private unnamed_addr constant [12 x i8] c"part_data.c\00", align 1
@plugin_type = external constant [0 x i8], align 1
@part_list = external global ptr, align 8
@.str.9 = private unnamed_addr constant [40 x i8] c"%s: %s: %s: preparing for %d partitions\00", align 1
@__func__.part_data_create_array = private unnamed_addr constant [23 x i8] c"part_data_create_array\00", align 1
@preempt_by_qos = external global i8, align 1

; Function Attrs: nounwind uwtable
define dso_local void @part_data_destroy_row(ptr noundef %0, i16 noundef zeroext %1) #0 {
  %3 = alloca ptr, align 8
  %4 = alloca i16, align 2
  %5 = alloca i32, align 4
  store ptr %0, ptr %3, align 8
  store i16 %1, ptr %4, align 2
  call void @llvm.lifetime.start.p0(i64 4, ptr %5) #5
  store i32 0, ptr %5, align 4
  br label %6

6:                                                ; preds = %22, %2
  %7 = load i32, ptr %5, align 4
  %8 = load i16, ptr %4, align 2
  %9 = zext i16 %8 to i32
  %10 = icmp ult i32 %7, %9
  br i1 %10, label %11, label %25

11:                                               ; preds = %6
  %12 = load ptr, ptr %3, align 8
  %13 = load i32, ptr %5, align 4
  %14 = zext i32 %13 to i64
  %15 = getelementptr inbounds nuw %struct.part_row_data_t, ptr %12, i64 %14
  %16 = getelementptr inbounds nuw %struct.part_row_data_t, ptr %15, i32 0, i32 3
  call void @free_core_array(ptr noundef %16)
  %17 = load ptr, ptr %3, align 8
  %18 = load i32, ptr %5, align 4
  %19 = zext i32 %18 to i64
  %20 = getelementptr inbounds nuw %struct.part_row_data_t, ptr %17, i64 %19
  %21 = getelementptr inbounds nuw %struct.part_row_data_t, ptr %20, i32 0, i32 0
  call void @slurm_xfree(ptr noundef %21)
  br label %22

22:                                               ; preds = %11
  %23 = load i32, ptr %5, align 4
  %24 = add i32 %23, 1
  store i32 %24, ptr %5, align 4
  br label %6, !llvm.loop !27

25:                                               ; preds = %6
  call void @slurm_xfree(ptr noundef %3)
  call void @llvm.lifetime.end.p0(i64 4, ptr %5) #5
  ret void
}

; Function Attrs: nounwind uwtable
define dso_local void @part_data_destroy_res(ptr noundef %0) #0 {
  %2 = alloca ptr, align 8
  %3 = alloca ptr, align 8
  store ptr %0, ptr %2, align 8
  br label %4

4:                                                ; preds = %27, %1
  %5 = load ptr, ptr %2, align 8
  %6 = icmp ne ptr %5, null
  br i1 %6, label %7, label %28

7:                                                ; preds = %4
  call void @llvm.lifetime.start.p0(i64 8, ptr %3) #5
  %8 = load ptr, ptr %2, align 8
  store ptr %8, ptr %3, align 8
  %9 = load ptr, ptr %2, align 8
  %10 = getelementptr inbounds nuw %struct.part_res_record, ptr %9, i32 0, i32 0
  %11 = load ptr, ptr %10, align 8
  store ptr %11, ptr %2, align 8
  %12 = load ptr, ptr %3, align 8
  %13 = getelementptr inbounds nuw %struct.part_res_record, ptr %12, i32 0, i32 2
  store ptr null, ptr %13, align 8
  %14 = load ptr, ptr %3, align 8
  %15 = getelementptr inbounds nuw %struct.part_res_record, ptr %14, i32 0, i32 4
  %16 = load ptr, ptr %15, align 8
  %17 = icmp ne ptr %16, null
  br i1 %17, label %18, label %27

18:                                               ; preds = %7
  %19 = load ptr, ptr %3, align 8
  %20 = getelementptr inbounds nuw %struct.part_res_record, ptr %19, i32 0, i32 4
  %21 = load ptr, ptr %20, align 8
  %22 = load ptr, ptr %3, align 8
  %23 = getelementptr inbounds nuw %struct.part_res_record, ptr %22, i32 0, i32 1
  %24 = load i16, ptr %23, align 8
  call void @part_data_destroy_row(ptr noundef %21, i16 noundef zeroext %24)
  %25 = load ptr, ptr %3, align 8
  %26 = getelementptr inbounds nuw %struct.part_res_record, ptr %25, i32 0, i32 4
  store ptr null, ptr %26, align 8
  br label %27

27:                                               ; preds = %18, %7
  call void @slurm_xfree(ptr noundef %3)
  call void @llvm.lifetime.end.p0(i64 8, ptr %3) #5
  br label %4, !llvm.loop !32

28:                                               ; preds = %4
  ret void
}

; Function Attrs: nounwind uwtable
define dso_local void @part_data_create_array() #0 {
  %1 = alloca ptr, align 8
  %2 = alloca ptr, align 8
  %3 = alloca ptr, align 8
  %4 = alloca ptr, align 8
  %5 = alloca ptr, align 8
  %6 = alloca i32, align 4
  %7 = alloca i32, align 4
  call void @llvm.lifetime.start.p0(i64 8, ptr %1) #5
  store ptr null, ptr %1, align 8
  call void @llvm.lifetime.start.p0(i64 8, ptr %2) #5
  call void @llvm.lifetime.start.p0(i64 8, ptr %3) #5
  call void @llvm.lifetime.start.p0(i64 8, ptr %4) #5
  call void @llvm.lifetime.start.p0(i64 8, ptr %5) #5
  store ptr null, ptr %5, align 8
  call void @llvm.lifetime.start.p0(i64 4, ptr %6) #5
  %8 = load ptr, ptr @select_part_record, align 8
  call void @part_data_destroy_res(ptr noundef %8)
  store ptr null, ptr @select_part_record, align 8
  %9 = load ptr, ptr @part_list, align 8
  %10 = call i32 @list_count(ptr noundef %9)
  store i32 %10, ptr %6, align 4
  %11 = load i32, ptr %6, align 4
  %12 = icmp ne i32 %11, 0
  br i1 %12, label %14, label %13

13:                                               ; preds = %0
  store i32 1, ptr %7, align 4
  br label %110

14:                                               ; preds = %0
  br label %15

15:                                               ; preds = %14
  br label %16

16:                                               ; preds = %15
  %17 = call i32 @get_log_level()
  %18 = icmp sge i32 %17, 3
  br i1 %18, label %19, label %21

19:                                               ; preds = %16
  %20 = load i32, ptr %6, align 4
  call void (i32, ptr, ...) @log_var(i32 noundef 3, ptr noundef @.str.9, ptr noundef @plugin_type, ptr noundef @__func__.part_data_create_array, ptr noundef @plugin_type, i32 noundef %20)
  br label %21

21:                                               ; preds = %19, %16
  br label %22

22:                                               ; preds = %21
  br label %23

23:                                               ; preds = %22
  br label %24

24:                                               ; preds = %23
  br label %25

25:                                               ; preds = %24
  %26 = call ptr @list_create(ptr noundef null)
  store ptr %26, ptr %1, align 8
  %27 = load ptr, ptr @part_list, align 8
  %28 = call ptr @list_iterator_create(ptr noundef %27)
  store ptr %28, ptr %2, align 8
  br label %29

29:                                               ; preds = %73, %25
  %30 = load ptr, ptr %2, align 8
  %31 = call ptr @list_next(ptr noundef %30)
  store ptr %31, ptr %3, align 8
  %32 = icmp ne ptr %31, null
  br i1 %32, label %33, label %80

33:                                               ; preds = %29
  %34 = call ptr @slurm_xcalloc(i64 noundef 1, i64 noundef 40, i1 noundef zeroext true, i1 noundef zeroext false, ptr noundef @.str, i32 noundef 342, ptr noundef @__func__.part_data_create_array)
  store ptr %34, ptr %4, align 8
  %35 = load ptr, ptr %3, align 8
  %36 = load ptr, ptr %4, align 8
  %37 = getelementptr inbounds nuw %struct.part_res_record, ptr %36, i32 0, i32 2
  store ptr %35, ptr %37, align 8
  %38 = load ptr, ptr %3, align 8
  %39 = getelementptr inbounds nuw %struct.part_record, ptr %38, i32 0, i32 29
  %40 = load i16, ptr %39, align 8
  %41 = load ptr, ptr %4, align 8
  %42 = getelementptr inbounds nuw %struct.part_res_record, ptr %41, i32 0, i32 1
  store i16 %40, ptr %42, align 8
  %43 = load ptr, ptr %4, align 8
  %44 = getelementptr inbounds nuw %struct.part_res_record, ptr %43, i32 0, i32 1
  %45 = load i16, ptr %44, align 8
  %46 = zext i16 %45 to i32
  %47 = and i32 %46, 32768
  %48 = icmp ne i32 %47, 0
  br i1 %48, label %49, label %56

49:                                               ; preds = %33
  %50 = load ptr, ptr %4, align 8
  %51 = getelementptr inbounds nuw %struct.part_res_record, ptr %50, i32 0, i32 1
  %52 = load i16, ptr %51, align 8
  %53 = zext i16 %52 to i32
  %54 = and i32 %53, -32769
  %55 = trunc i32 %54 to i16
  store i16 %55, ptr %51, align 8
  br label %56

56:                                               ; preds = %49, %33
  %57 = load i8, ptr @preempt_by_qos, align 1, !range !28, !noundef !29
  %58 = trunc i8 %57 to i1
  br i1 %58, label %59, label %64

59:                                               ; preds = %56
  %60 = load ptr, ptr %4, align 8
  %61 = getelementptr inbounds nuw %struct.part_res_record, ptr %60, i32 0, i32 1
  %62 = load i16, ptr %61, align 8
  %63 = add i16 %62, 1
  store i16 %63, ptr %61, align 8
  br label %64

64:                                               ; preds = %59, %56
  %65 = load ptr, ptr %4, align 8
  %66 = getelementptr inbounds nuw %struct.part_res_record, ptr %65, i32 0, i32 1
  %67 = load i16, ptr %66, align 8
  %68 = zext i16 %67 to i32
  %69 = icmp slt i32 %68, 1
  br i1 %69, label %70, label %73

70:                                               ; preds = %64
  %71 = load ptr, ptr %4, align 8
  %72 = getelementptr inbounds nuw %struct.part_res_record, ptr %71, i32 0, i32 1
  store i16 1, ptr %72, align 8
  br label %73

73:                                               ; preds = %70, %64
  %74 = load ptr, ptr %4, align 8
  %75 = getelementptr inbounds nuw %struct.part_res_record, ptr %74, i32 0, i32 4
  store ptr null, ptr %75, align 8
  %76 = load ptr, ptr %4, align 8
  %77 = getelementptr inbounds nuw %struct.part_res_record, ptr %76, i32 0, i32 3
  store i8 0, ptr %77, align 8
  %78 = load ptr, ptr %1, align 8
  %79 = load ptr, ptr %4, align 8
  call void @list_append(ptr noundef %78, ptr noundef %79)
  br label %29, !llvm.loop !30

80:                                               ; preds = %29
  %81 = load ptr, ptr %2, align 8
  call void @list_iterator_destroy(ptr noundef %81)
  %82 = load ptr, ptr %1, align 8
  call void @list_sort(ptr noundef %82, ptr noundef @_sort_part_prio)
  %83 = load ptr, ptr %1, align 8
  %84 = call ptr @list_iterator_create(ptr noundef %83)
  store ptr %84, ptr %2, align 8
  br label %85

85:                                               ; preds = %98, %80
  %86 = load ptr, ptr %2, align 8
  %87 = call ptr @list_next(ptr noundef %86)
  store ptr %87, ptr %4, align 8
  %88 = icmp ne ptr %87, null
  br i1 %88, label %89, label %100

89:                                               ; preds = %85
  %90 = load ptr, ptr %5, align 8
  %91 = icmp ne ptr %90, null
  br i1 %91, label %92, label %96

92:                                               ; preds = %89
  %93 = load ptr, ptr %4, align 8
  %94 = load ptr, ptr %5, align 8
  %95 = getelementptr inbounds nuw %struct.part_res_record, ptr %94, i32 0, i32 0
  store ptr %93, ptr %95, align 8
  br label %98

96:                                               ; preds = %89
  %97 = load ptr, ptr %4, align 8
  store ptr %97, ptr @select_part_record, align 8
  br label %98

98:                                               ; preds = %96, %92
  %99 = load ptr, ptr %4, align 8
  store ptr %99, ptr %5, align 8
  br label %85, !llvm.loop !31

100:                                              ; preds = %85
  %101 = load ptr, ptr %2, align 8
  call void @list_iterator_destroy(ptr noundef %101)
  br label %102

102:                                              ; preds = %100
  %103 = load ptr, ptr %1, align 8
  %104 = icmp ne ptr %103, null
  br i1 %104, label %105, label %107

105:                                              ; preds = %102
  %106 = load ptr, ptr %1, align 8
  call void @list_destroy(ptr noundef %106)
  br label %107

107:                                              ; preds = %105, %102
  store ptr null, ptr %1, align 8
  br label %108

108:                                              ; preds = %107
  br label %109

109:                                              ; preds = %108
  store i32 0, ptr %7, align 4
  br label %110

110:                                              ; preds = %109, %13
  call void @llvm.lifetime.end.p0(i64 4, ptr %6) #5
  call void @llvm.lifetime.end.p0(i64 8, ptr %5) #5
  call void @llvm.lifetime.end.p0(i64 8, ptr %4) #5
  call void @llvm.lifetime.end.p0(i64 8, ptr %3) #5
  call void @llvm.lifetime.end.p0(i64 8, ptr %2) #5
  call void @llvm.lifetime.end.p0(i64 8, ptr %1) #5
  %111 = load i32, ptr %7, align 4
  switch i32 %111, label %113 [
    i32 0, label %112
    i32 1, label %112
  ]

112:                                              ; preds = %110, %110
  ret void

113:                                              ; preds = %110
  unreachable
}