; Function Attrs: nounwind uwtable
define dso_local void @part_data_create_array() local_unnamed_addr #0 {
  %1 = alloca ptr, align 8
  %2 = alloca ptr, align 8
  %3 = load ptr, ptr @select_part_record, align 8
  %.not5.i = icmp eq ptr %3, null
  br i1 %.not5.i, label %part_data_destroy_res.exit, label %.lr.ph.i

.lr.ph.i:                                         ; preds = %0, %16
  %.06.i = phi ptr [ %4, %16 ], [ %3, %0 ]
  call void @llvm.lifetime.start.p0(i64 8, ptr nonnull %2) #8
  store ptr %.06.i, ptr %2, align 8
  %4 = load ptr, ptr %.06.i, align 8
  %5 = getelementptr inbounds nuw i8, ptr %.06.i, i64 16
  store ptr null, ptr %5, align 8
  %6 = getelementptr inbounds nuw i8, ptr %.06.i, i64 32
  %7 = load ptr, ptr %6, align 8
  %.not4.i = icmp eq ptr %7, null
  br i1 %.not4.i, label %16, label %8

8:                                                ; preds = %.lr.ph.i
  %9 = getelementptr inbounds nuw i8, ptr %.06.i, i64 8
  %10 = load i16, ptr %9, align 8
  call void @llvm.lifetime.start.p0(i64 8, ptr nonnull %1)
  store ptr %7, ptr %1, align 8
  %.not.i.i = icmp eq i16 %10, 0
  br i1 %.not.i.i, label %part_data_destroy_row.exit.i, label %.lr.ph.i.i

.lr.ph.i.i:                                       ; preds = %8
  %wide.trip.count.i.i = zext i16 %10 to i64
  br label %11

11:                                               ; preds = %11, %.lr.ph.i.i
  %indvars.iv.i.i = phi i64 [ 0, %.lr.ph.i.i ], [ %indvars.iv.next.i.i, %11 ]
  %12 = getelementptr inbounds nuw %struct.part_row_data_t, ptr %7, i64 %indvars.iv.i.i, i32 3
  call void @free_core_array(ptr noundef nonnull %12) #8
  %13 = getelementptr inbounds nuw %struct.part_row_data_t, ptr %7, i64 %indvars.iv.i.i
  call void @slurm_xfree(ptr noundef nonnull %13) #8
  %indvars.iv.next.i.i = add nuw nsw i64 %indvars.iv.i.i, 1
  %exitcond.not.i.i = icmp eq i64 %indvars.iv.next.i.i, %wide.trip.count.i.i
  br i1 %exitcond.not.i.i, label %part_data_destroy_row.exit.i, label %11, !llvm.loop !21

part_data_destroy_row.exit.i:                     ; preds = %11, %8
  call void @slurm_xfree(ptr noundef nonnull %1) #8
  call void @llvm.lifetime.end.p0(i64 8, ptr nonnull %1)
  %14 = load ptr, ptr %2, align 8
  %15 = getelementptr inbounds nuw i8, ptr %14, i64 32
  store ptr null, ptr %15, align 8
  br label %16

16:                                               ; preds = %part_data_destroy_row.exit.i, %.lr.ph.i
  call void @slurm_xfree(ptr noundef nonnull %2) #8
  call void @llvm.lifetime.end.p0(i64 8, ptr nonnull %2) #8
  %.not.i = icmp eq ptr %4, null
  br i1 %.not.i, label %part_data_destroy_res.exit, label %.lr.ph.i, !llvm.loop !28

part_data_destroy_res.exit:                       ; preds = %16, %0
  store ptr null, ptr @select_part_record, align 8
  %17 = load ptr, ptr @part_list, align 8
  %18 = call i32 @list_count(ptr noundef %17) #8
  %.not = icmp eq i32 %18, 0
  br i1 %.not, label %49, label %19

19:                                               ; preds = %part_data_destroy_res.exit
  %20 = call i32 @get_log_level() #8
  %21 = icmp sgt i32 %20, 2
  br i1 %21, label %22, label %23

22:                                               ; preds = %19
  call void (i32, ptr, ...) @log_var(i32 noundef 3, ptr noundef nonnull @.str.9, ptr noundef nonnull @plugin_type, ptr noundef nonnull @__func__.part_data_create_array, ptr noundef nonnull @plugin_type, i32 noundef %18) #8
  br label %23

23:                                               ; preds = %22, %19
  %24 = call ptr @list_create(ptr noundef null) #8
  %25 = load ptr, ptr @part_list, align 8
  %26 = call ptr @list_iterator_create(ptr noundef %25) #8
  %27 = call ptr @list_next(ptr noundef %26) #8
  %.not3136 = icmp eq ptr %27, null
  br i1 %.not3136, label %._crit_edge, label %.lr.ph

.lr.ph:                                           ; preds = %23, %40
  %28 = phi ptr [ %43, %40 ], [ %27, %23 ]
  %29 = call ptr @slurm_xcalloc(i64 noundef 1, i64 noundef 40, i1 noundef zeroext true, i1 noundef zeroext false, ptr noundef nonnull @.str, i32 noundef 342, ptr noundef nonnull @__func__.part_data_create_array) #8
  %30 = getelementptr inbounds nuw i8, ptr %29, i64 16
  store ptr %28, ptr %30, align 8
  %31 = getelementptr inbounds nuw i8, ptr %28, i64 208
  %32 = load i16, ptr %31, align 8
  %33 = getelementptr inbounds nuw i8, ptr %29, i64 8
  %34 = and i16 %32, 32767
  store i16 %34, ptr %33, align 8
  %35 = load i8, ptr @preempt_by_qos, align 1, !range !29, !noundef !30
  %36 = trunc nuw i8 %35 to i1
  br i1 %36, label %.thread, label %38

.thread:                                          ; preds = %.lr.ph
  %37 = add nuw i16 %34, 1
  br label %.sink.split

38:                                               ; preds = %.lr.ph
  %39 = icmp eq i16 %34, 0
  br i1 %39, label %.sink.split, label %40

.sink.split:                                      ; preds = %38, %.thread
  %.sink = phi i16 [ %37, %.thread ], [ 1, %38 ]
  store i16 %.sink, ptr %33, align 8
  br label %40

40:                                               ; preds = %.sink.split, %38
  %41 = getelementptr inbounds nuw i8, ptr %29, i64 32
  store ptr null, ptr %41, align 8
  %42 = getelementptr inbounds nuw i8, ptr %29, i64 24
  store i8 0, ptr %42, align 8
  call void @list_append(ptr noundef %24, ptr noundef nonnull %29) #8
  %43 = call ptr @list_next(ptr noundef %26) #8
  %.not31 = icmp eq ptr %43, null
  br i1 %.not31, label %._crit_edge, label %.lr.ph, !llvm.loop !31

._crit_edge:                                      ; preds = %40, %23
  call void @list_iterator_destroy(ptr noundef %26) #8
  call void @list_sort(ptr noundef %24, ptr noundef nonnull @_sort_part_prio) #8
  %44 = call ptr @list_iterator_create(ptr noundef %24) #8
  %45 = call ptr @list_next(ptr noundef %44) #8
  %.not3237 = icmp eq ptr %45, null
  br i1 %.not3237, label %._crit_edge41, label %.lr.ph40

.lr.ph40:                                         ; preds = %._crit_edge, %.lr.ph40
  %46 = phi ptr [ %47, %.lr.ph40 ], [ %45, %._crit_edge ]
  %.038 = phi ptr [ %46, %.lr.ph40 ], [ null, %._crit_edge ]
  %.not34 = icmp eq ptr %.038, null
  %select_part_record..038 = select i1 %.not34, ptr @select_part_record, ptr %.038
  store ptr %46, ptr %select_part_record..038, align 8
  %47 = call ptr @list_next(ptr noundef %44) #8
  %.not32 = icmp eq ptr %47, null
  br i1 %.not32, label %._crit_edge41, label %.lr.ph40, !llvm.loop !32

._crit_edge41:                                    ; preds = %.lr.ph40, %._crit_edge
  call void @list_iterator_destroy(ptr noundef %44) #8
  %.not33 = icmp eq ptr %24, null
  br i1 %.not33, label %49, label %48

48:                                               ; preds = %._crit_edge41
  call void @list_destroy(ptr noundef nonnull %24) #8
  br label %49

49:                                               ; preds = %._crit_edge41, %48, %part_data_destroy_res.exit
  ret void
}